target datalayout = "e-m:e-p270:32:32-p271:32:32-p272:64:64-i64:64-i128:128-f80:128-n8:16:32:64-S128"
target triple = "x86_64-pc-linux-gnu"

%"class.std::_Sp_counted_base" = type { ptr, i32, i32 }
%"class.std::_Sp_counted_deleter" = type { %"class.std::_Sp_counted_base", %"class.std::_Sp_counted_deleter<rocksdb::experimental::(anonymous namespace)::SstQueryFilterBuilder *, std::default_delete<rocksdb::experimental::(anonymous namespace)::SstQueryFilterBuilder>, std::allocator<void>, __gnu_cxx::_S_atomic>::_Impl" }
%"class.std::_Sp_counted_deleter<rocksdb::experimental::(anonymous namespace)::SstQueryFilterBuilder *, std::default_delete<rocksdb::experimental::(anonymous namespace)::SstQueryFilterBuilder>, std::allocator<void>, __gnu_cxx::_S_atomic>::_Impl" = type { ptr }

; Function Attrs: noinline noreturn nounwind uwtable
define linkonce_odr hidden void @__clang_call_terminate(ptr noundef %0) #14 comdat {
  %2 = call ptr @__cxa_begin_catch(ptr %0) #4
  call void @_ZSt9terminatev() #22
  unreachable
}

; Function Attrs: mustprogress nounwind uwtable
define internal noundef nonnull align 1 dereferenceable(1) ptr @_ZNSt14_Sp_ebo_helperILi0ESt14default_deleteIN7rocksdb12experimental12_GLOBAL__N_121SstQueryFilterBuilderEELb1EE6_S_getERS6_(ptr noundef nonnull align 1 dereferenceable(1) %0) #3 align 2 {
  %2 = alloca ptr, align 8
  store ptr %0, ptr %2, align 8, !tbaa !2391
  %3 = load ptr, ptr %2, align 8, !tbaa !2391
  ret ptr %3
}

; Function Attrs: mustprogress nounwind uwtable
define internal void @_ZNKSt14default_deleteIN7rocksdb12experimental12_GLOBAL__N_121SstQueryFilterBuilderEEclEPS3_(ptr noundef nonnull align 1 dereferenceable(1) %0, ptr noundef %1) #3 align 2 {
  %3 = alloca ptr, align 8
  %4 = alloca ptr, align 8
  store ptr %0, ptr %3, align 8, !tbaa !2189
  store ptr %1, ptr %4, align 8, !tbaa !2075
  %5 = load ptr, ptr %4, align 8, !tbaa !2075
  %6 = icmp eq ptr %5, null
  br i1 %6, label %11, label %7

7:                                                ; preds = %2
  %8 = load ptr, ptr %5, align 8, !tbaa !56
  %9 = getelementptr inbounds ptr, ptr %8, i64 1
  %10 = load ptr, ptr %9, align 8
  call void %10(ptr noundef nonnull align 8 dereferenceable(8) %5) #4
  br label %11

11:                                               ; preds = %7, %2
  ret void
}

; Function Attrs: mustprogress nounwind uwtable
define internal noundef nonnull align 1 dereferenceable(1) ptr @_ZNSt19_Sp_counted_deleterIPN7rocksdb12experimental12_GLOBAL__N_121SstQueryFilterBuilderESt14default_deleteIS3_ESaIvELN9__gnu_cxx12_Lock_policyE2EE5_Impl6_M_delEv(ptr noundef nonnull align 8 dereferenceable(8) %0) #3 align 2 personality ptr @__gxx_personality_v0 {
  %2 = alloca ptr, align 8
  store ptr %0, ptr %2, align 8, !tbaa !2385
  %3 = load ptr, ptr %2, align 8
  %4 = invoke noundef nonnull align 1 dereferenceable(1) ptr @_ZNSt14_Sp_ebo_helperILi0ESt14default_deleteIN7rocksdb12experimental12_GLOBAL__N_121SstQueryFilterBuilderEELb1EE6_S_getERS6_(ptr noundef nonnull align 1 dereferenceable(1) %3)
          to label %5 unwind label %6

5:                                                ; preds = %1
  ret ptr %4

6:                                                ; preds = %1
  %7 = landingpad { ptr, i32 }
          catch ptr null
  %8 = extractvalue { ptr, i32 } %7, 0
  call void @__clang_call_terminate(ptr %8) #22
  unreachable
}

; Function Attrs: mustprogress nounwind uwtable
define internal void @_ZNSt19_Sp_counted_deleterIPN7rocksdb12experimental12_GLOBAL__N_121SstQueryFilterBuilderESt14default_deleteIS3_ESaIvELN9__gnu_cxx12_Lock_policyE2EE10_M_disposeEv(ptr noundef nonnull align 8 dereferenceable(24) %0) unnamed_addr #3 align 2 {
  %2 = alloca ptr, align 8
  store ptr %0, ptr %2, align 8, !tbaa !2379
  %3 = load ptr, ptr %2, align 8
  %4 = getelementptr inbounds nuw %"class.std::_Sp_counted_deleter", ptr %3, i32 0, i32 1
  %5 = call noundef nonnull align 1 dereferenceable(1) ptr @_ZNSt19_Sp_counted_deleterIPN7rocksdb12experimental12_GLOBAL__N_121SstQueryFilterBuilderESt14default_deleteIS3_ESaIvELN9__gnu_cxx12_Lock_policyE2EE5_Impl6_M_delEv(ptr noundef nonnull align 8 dereferenceable(8) %4) #4
  %6 = getelementptr inbounds nuw %"class.std::_Sp_counted_deleter", ptr %3, i32 0, i32 1
  %7 = getelementptr inbounds nuw %"class.std::_Sp_counted_deleter<rocksdb::experimental::(anonymous namespace)::SstQueryFilterBuilder *, std::default_delete<rocksdb::experimental::(anonymous namespace)::SstQueryFilterBuilder>, std::allocator<void>, __gnu_cxx::_S_atomic>::_Impl", ptr %6, i32 0, i32 0
  %8 = load ptr, ptr %7, align 8, !tbaa !2389
  call void @_ZNKSt14default_deleteIN7rocksdb12experimental12_GLOBAL__N_121SstQueryFilterBuilderEEclEPS3_(ptr noundef nonnull align 1 dereferenceable(1) %5, ptr noundef %8)
  ret void
}