; Function Attrs: mustprogress nounwind uwtable
define internal void @_ZNSt19_Sp_counted_deleterIPN7rocksdb12experimental12_GLOBAL__N_121SstQueryFilterBuilderESt14default_deleteIS3_ESaIvELN9__gnu_cxx12_Lock_policyE2EE10_M_disposeEv(ptr noundef nonnull readonly align 8 captures(none) dereferenceable(24) %0) unnamed_addr #1 align 2 personality ptr @__gxx_personality_v0 {
  %2 = getelementptr inbounds nuw i8, ptr %0, i64 16
  %3 = load ptr, ptr %2, align 8, !tbaa !1182
  %4 = icmp eq ptr %3, null
  br i1 %4, label %_ZNKSt14default_deleteIN7rocksdb12experimental12_GLOBAL__N_121SstQueryFilterBuilderEEclEPS3_.exit, label %5

5:                                                ; preds = %1
  %6 = load ptr, ptr %3, align 8, !tbaa !21
  %7 = getelementptr inbounds nuw i8, ptr %6, i64 8
  %8 = load ptr, ptr %7, align 8
  tail call void %8(ptr noundef nonnull align 8 dereferenceable(8) %3) #34
  br label %_ZNKSt14default_deleteIN7rocksdb12experimental12_GLOBAL__N_121SstQueryFilterBuilderEEclEPS3_.exit

_ZNKSt14default_deleteIN7rocksdb12experimental12_GLOBAL__N_121SstQueryFilterBuilderEEclEPS3_.exit: ; preds = %1, %5
  ret void
}